target datalayout = "e-m:e-p270:32:32-p271:32:32-p272:64:64-i64:64-i128:128-f80:128-n8:16:32:64-S128"
target triple = "x86_64-pc-linux-gnu"

%struct._lv_canvas_t = type { %struct._lv_image_t, ptr, %struct._lv_draw_buf_t }
%struct._lv_image_t = type { %struct._lv_obj_t, ptr, ptr, %struct.lv_point_t, i32, i32, i32, i32, i32, %struct.lv_point_t, i16 }
%struct._lv_obj_t = type { ptr, ptr, ptr, ptr, ptr, %struct.lv_area_t, i32, i16, i16 }
%struct.lv_area_t = type { i32, i32, i32, i32 }
%struct.lv_point_t = type { i32, i32 }
%struct._lv_draw_buf_t = type { %struct.lv_image_header_t, i32, ptr, ptr, ptr }
%struct.lv_image_header_t = type <{ i64, i32 }>

; Function Attrs: nounwind uwtable
define void @lv_canvas_set_buffer(ptr noundef %0, ptr noundef %1, i32 noundef %2, i32 noundef %3, i32 noundef %4) #0 {
  %6 = alloca ptr, align 8
  %7 = alloca ptr, align 8
  %8 = alloca i32, align 4
  %9 = alloca i32, align 4
  %10 = alloca i32, align 4
  %11 = alloca ptr, align 8
  %12 = alloca i32, align 4
  %13 = alloca ptr, align 8
  store ptr %0, ptr %6, align 8, !tbaa !3
  store ptr %1, ptr %7, align 8, !tbaa !3
  store i32 %2, ptr %8, align 4, !tbaa !17
  store i32 %3, ptr %9, align 4, !tbaa !17
  store i32 %4, ptr %10, align 4, !tbaa !17
  br label %14

14:                                               ; preds = %5
  br label %15

15:                                               ; preds = %14
  br label %16

16:                                               ; preds = %15
  %17 = load ptr, ptr %7, align 8, !tbaa !3
  %18 = icmp ne ptr %17, null
  br i1 %18, label %23, label %19

19:                                               ; preds = %16
  br label %20

20:                                               ; preds = %19
  br label %21

21:                                               ; preds = %20
  br label %22

22:                                               ; preds = %21, %22
  br label %22

23:                                               ; preds = %16
  br label %24

24:                                               ; preds = %23
  call void @llvm.lifetime.start.p0(i64 8, ptr %11) #6
  %25 = load ptr, ptr %6, align 8, !tbaa !3
  store ptr %25, ptr %11, align 8, !tbaa !3
  call void @llvm.lifetime.start.p0(i64 4, ptr %12) #6
  %26 = load i32, ptr %8, align 4, !tbaa !17
  %27 = load i32, ptr %10, align 4, !tbaa !17
  %28 = call i32 @lv_draw_buf_width_to_stride(i32 noundef %26, i32 noundef %27)
  store i32 %28, ptr %12, align 4, !tbaa !17
  %29 = load ptr, ptr %11, align 8, !tbaa !3
  %30 = getelementptr inbounds nuw %struct._lv_canvas_t, ptr %29, i32 0, i32 2
  %31 = load i32, ptr %8, align 4, !tbaa !17
  %32 = load i32, ptr %9, align 4, !tbaa !17
  %33 = load i32, ptr %10, align 4, !tbaa !17
  %34 = load i32, ptr %12, align 4, !tbaa !17
  %35 = load ptr, ptr %7, align 8, !tbaa !3
  %36 = load i32, ptr %12, align 4, !tbaa !17
  %37 = load i32, ptr %9, align 4, !tbaa !17
  %38 = mul i32 %36, %37
  %39 = call i32 @lv_draw_buf_init(ptr noundef %30, i32 noundef %31, i32 noundef %32, i32 noundef %33, i32 noundef %34, ptr noundef %35, i32 noundef %38)
  %40 = load ptr, ptr %11, align 8, !tbaa !3
  %41 = getelementptr inbounds nuw %struct._lv_canvas_t, ptr %40, i32 0, i32 2
  %42 = load ptr, ptr %11, align 8, !tbaa !3
  %43 = getelementptr inbounds nuw %struct._lv_canvas_t, ptr %42, i32 0, i32 1
  store ptr %41, ptr %43, align 8, !tbaa !7
  call void @llvm.lifetime.start.p0(i64 8, ptr %13) #6
  %44 = load ptr, ptr %6, align 8, !tbaa !3
  %45 = call ptr @lv_image_get_src(ptr noundef %44)
  store ptr %45, ptr %13, align 8, !tbaa !3
  %46 = load ptr, ptr %13, align 8, !tbaa !3
  %47 = icmp ne ptr %46, null
  br i1 %47, label %48, label %50

48:                                               ; preds = %24
  %49 = load ptr, ptr %13, align 8, !tbaa !3
  call void @lv_image_cache_drop(ptr noundef %49)
  br label %50

50:                                               ; preds = %48, %24
  %51 = load ptr, ptr %6, align 8, !tbaa !3
  %52 = load ptr, ptr %11, align 8, !tbaa !3
  %53 = getelementptr inbounds nuw %struct._lv_canvas_t, ptr %52, i32 0, i32 1
  %54 = load ptr, ptr %53, align 8, !tbaa !7
  call void @lv_image_set_src(ptr noundef %51, ptr noundef %54)
  %55 = load ptr, ptr %11, align 8, !tbaa !3
  %56 = getelementptr inbounds nuw %struct._lv_canvas_t, ptr %55, i32 0, i32 1
  %57 = load ptr, ptr %56, align 8, !tbaa !7
  call void @lv_image_cache_drop(ptr noundef %57)
  call void @llvm.lifetime.end.p0(i64 8, ptr %13) #6
  call void @llvm.lifetime.end.p0(i64 4, ptr %12) #6
  call void @llvm.lifetime.end.p0(i64 8, ptr %11) #6
  ret void
}