; Function Attrs: nounwind uwtable
define void @lv_canvas_set_buffer(ptr noundef %0, ptr noundef %1, i32 noundef %2, i32 noundef %3, i32 noundef %4) local_unnamed_addr #1 {
  %.not = icmp eq ptr %1, null
  br i1 %.not, label %.preheader, label %6

.preheader:                                       ; preds = %5, %.preheader
  br label %.preheader

6:                                                ; preds = %5
  %7 = tail call i32 @lv_draw_buf_width_to_stride(i32 noundef %2, i32 noundef %4) #5
  %8 = getelementptr inbounds nuw i8, ptr %0, i64 128
  %9 = mul i32 %7, %3
  %10 = tail call i32 @lv_draw_buf_init(ptr noundef nonnull %8, i32 noundef %2, i32 noundef %3, i32 noundef %4, i32 noundef %7, ptr noundef nonnull %1, i32 noundef %9) #5
  %11 = getelementptr inbounds nuw i8, ptr %0, i64 120
  store ptr %8, ptr %11, align 8, !tbaa !3
  %12 = tail call ptr @lv_image_get_src(ptr noundef %0) #5
  %.not20 = icmp eq ptr %12, null
  br i1 %.not20, label %14, label %13

13:                                               ; preds = %6
  tail call void @lv_image_cache_drop(ptr noundef nonnull %12) #5
  br label %14

14:                                               ; preds = %13, %6
  %15 = load ptr, ptr %11, align 8, !tbaa !3
  tail call void @lv_image_set_src(ptr noundef nonnull %0, ptr noundef %15) #5
  %16 = load ptr, ptr %11, align 8, !tbaa !3
  tail call void @lv_image_cache_drop(ptr noundef %16) #5
  ret void
}